target datalayout = "e-m:e-p270:32:32-p271:32:32-p272:64:64-i64:64-i128:128-f80:128-n8:16:32:64-S128"
target triple = "x86_64-pc-linux-gnu"

%struct._lv_anim_t = type { ptr, ptr, ptr, ptr, ptr, ptr, ptr, ptr, ptr, i32, i32, i32, i32, i32, i32, i32, i32, i32, %union._lv_anim_path_para_t, i32, i8 }
%union._lv_anim_path_para_t = type { %struct.lv_anim_bezier3_para_t }
%struct.lv_anim_bezier3_para_t = type { i16, i16, i16, i16 }

; Function Attrs: nounwind uwtable
define void @lv_anim_set_early_apply(ptr noundef %0, i1 noundef zeroext %1) #0 {
  %3 = alloca ptr, align 8
  %4 = alloca i8, align 1
  store ptr %0, ptr %3, align 8, !tbaa !21
  %5 = zext i1 %1 to i8
  store i8 %5, ptr %4, align 1, !tbaa !45
  %6 = load i8, ptr %4, align 1, !tbaa !45, !range !22, !noundef !23
  %7 = trunc i8 %6 to i1
  %8 = zext i1 %7 to i8
  %9 = load ptr, ptr %3, align 8, !tbaa !21
  %10 = getelementptr inbounds nuw %struct._lv_anim_t, ptr %9, i32 0, i32 20
  %11 = load i8, ptr %10, align 8
  %12 = and i8 %8, 1
  %13 = shl i8 %12, 3
  %14 = and i8 %11, -9
  %15 = or i8 %14, %13
  store i8 %15, ptr %10, align 8
  ret void
}