; Function Attrs: mustprogress nofree norecurse nosync nounwind willreturn memory(argmem: readwrite) uwtable
define void @lv_anim_set_early_apply(ptr nocapture noundef %0, i1 noundef zeroext %1) local_unnamed_addr #2 {
  %3 = getelementptr inbounds nuw i8, ptr %0, i64 120
  %4 = load i8, ptr %3, align 8
  %5 = select i1 %1, i8 8, i8 0
  %6 = and i8 %4, -9
  %7 = or disjoint i8 %6, %5
  store i8 %7, ptr %3, align 8
  ret void
}